target datalayout = "e-m:e-p270:32:32-p271:32:32-p272:64:64-i64:64-i128:128-f80:128-n8:16:32:64-S128"
target triple = "x86_64-pc-linux-gnu"

%struct.AVFilterContext = type { ptr, ptr, ptr, ptr, ptr, i32, ptr, ptr, i32, ptr, ptr, i32, i32, ptr, ptr, ptr, ptr, i32, ptr, i32, i32 }
%struct.MEContext = type { ptr, %struct.AVMotionEstContext, i32, i32, i32, i32, i32, i32, i32, ptr, ptr, ptr, [3 x ptr] }
%struct.AVMotionEstContext = type { ptr, ptr, i32, i32, i32, i32, i32, i32, i32, i32, i32, i32, i32, [2 x %struct.AVMotionEstPredictor], ptr }
%struct.AVMotionEstPredictor = type { [10 x [2 x i32]], i32 }

; Function Attrs: cold nounwind optsize uwtable
define internal void @uninit(ptr noundef %0) #0 {
  %2 = alloca ptr, align 8
  %3 = alloca ptr, align 8
  %4 = alloca i32, align 4
  store ptr %0, ptr %2, align 8, !tbaa !4
  call void @llvm.lifetime.start.p0(i64 8, ptr %3) #7
  %5 = load ptr, ptr %2, align 8, !tbaa !4
  %6 = getelementptr inbounds nuw %struct.AVFilterContext, ptr %5, i32 0, i32 9
  %7 = load ptr, ptr %6, align 8, !tbaa !9
  store ptr %7, ptr %3, align 8, !tbaa !22
  call void @llvm.lifetime.start.p0(i64 4, ptr %4) #7
  %8 = load ptr, ptr %3, align 8, !tbaa !22
  %9 = getelementptr inbounds nuw %struct.MEContext, ptr %8, i32 0, i32 9
  call void @av_frame_free(ptr noundef %9)
  %10 = load ptr, ptr %3, align 8, !tbaa !22
  %11 = getelementptr inbounds nuw %struct.MEContext, ptr %10, i32 0, i32 10
  call void @av_frame_free(ptr noundef %11)
  %12 = load ptr, ptr %3, align 8, !tbaa !22
  %13 = getelementptr inbounds nuw %struct.MEContext, ptr %12, i32 0, i32 11
  call void @av_frame_free(ptr noundef %13)
  store i32 0, ptr %4, align 4, !tbaa !24
  br label %14

14:                                               ; preds = %23, %1
  %15 = load i32, ptr %4, align 4, !tbaa !24
  %16 = icmp slt i32 %15, 3
  br i1 %16, label %17, label %26

17:                                               ; preds = %14
  %18 = load ptr, ptr %3, align 8, !tbaa !22
  %19 = getelementptr inbounds nuw %struct.MEContext, ptr %18, i32 0, i32 12
  %20 = load i32, ptr %4, align 4, !tbaa !24
  %21 = sext i32 %20 to i64
  %22 = getelementptr inbounds [3 x ptr], ptr %19, i64 0, i64 %21
  call void @av_freep(ptr noundef %22)
  br label %23

23:                                               ; preds = %17
  %24 = load i32, ptr %4, align 4, !tbaa !24
  %25 = add nsw i32 %24, 1
  store i32 %25, ptr %4, align 4, !tbaa !24
  br label %14, !llvm.loop !25

26:                                               ; preds = %14
  call void @llvm.lifetime.end.p0(i64 4, ptr %4) #7
  call void @llvm.lifetime.end.p0(i64 8, ptr %3) #7
  ret void
}