; Function Attrs: cold nounwind optsize uwtable
define internal void @uninit(ptr noundef readonly captures(none) %0) #0 {
  %2 = getelementptr inbounds nuw i8, ptr %0, i64 72
  %3 = load ptr, ptr %2, align 8, !tbaa !4
  %4 = getelementptr inbounds nuw i8, ptr %3, i64 280
  tail call void @av_frame_free(ptr noundef nonnull %4) #6
  %5 = getelementptr inbounds nuw i8, ptr %3, i64 288
  tail call void @av_frame_free(ptr noundef nonnull %5) #6
  %6 = getelementptr inbounds nuw i8, ptr %3, i64 296
  tail call void @av_frame_free(ptr noundef nonnull %6) #6
  %7 = getelementptr inbounds nuw i8, ptr %3, i64 304
  br label %8

8:                                                ; preds = %1, %8
  %indvars.iv = phi i64 [ 0, %1 ], [ %indvars.iv.next, %8 ]
  %9 = getelementptr inbounds nuw [3 x ptr], ptr %7, i64 0, i64 %indvars.iv
  tail call void @av_freep(ptr noundef nonnull %9) #6
  %indvars.iv.next = add nuw nsw i64 %indvars.iv, 1
  %exitcond.not = icmp eq i64 %indvars.iv.next, 3
  br i1 %exitcond.not, label %10, label %8, !llvm.loop !20

10:                                               ; preds = %8
  ret void
}